target datalayout = "e-m:e-p270:32:32-p271:32:32-p272:64:64-i64:64-i128:128-f80:128-n8:16:32:64-S128"
target triple = "x86_64-pc-linux-gnu"

%struct.OpusRangeCoder = type { %struct.GetBitContext, %struct.RawBitsContext, i32, i32, i32, [1287 x i8], ptr, i32, i32, i32 }
%struct.GetBitContext = type { ptr, ptr, i32, i32, i32 }
%struct.RawBitsContext = type { ptr, i32, i32, i32 }

@ff_log2_tab = external constant [256 x i8], align 16

; Function Attrs: alwaysinline nounwind willreturn memory(none) uwtable
define internal i32 @av_bswap32(i32 noundef %0) #3 {
  %2 = alloca i32, align 4
  store i32 %0, ptr %2, align 4, !tbaa !13
  %3 = load i32, ptr %2, align 4, !tbaa !13
  %4 = shl i32 %3, 8
  %5 = and i32 %4, 65280
  %6 = load i32, ptr %2, align 4, !tbaa !13
  %7 = lshr i32 %6, 8
  %8 = and i32 %7, 255
  %9 = or i32 %5, %8
  %10 = shl i32 %9, 16
  %11 = load i32, ptr %2, align 4, !tbaa !13
  %12 = lshr i32 %11, 16
  %13 = shl i32 %12, 8
  %14 = and i32 %13, 65280
  %15 = load i32, ptr %2, align 4, !tbaa !13
  %16 = lshr i32 %15, 16
  %17 = lshr i32 %16, 8
  %18 = and i32 %17, 255
  %19 = or i32 %14, %18
  %20 = or i32 %10, %19
  ret i32 %20
}

; Function Attrs: inlinehint nounwind uwtable
define internal i32 @get_bits(ptr noundef %0, i32 noundef %1) #7 {
  %3 = alloca ptr, align 8
  %4 = alloca i32, align 4
  %5 = alloca i32, align 4
  %6 = alloca i32, align 4
  %7 = alloca i32, align 4
  %8 = alloca i32, align 4
  store ptr %0, ptr %3, align 8, !tbaa !37
  store i32 %1, ptr %4, align 4, !tbaa !13
  call void @llvm.lifetime.start.p0(i64 4, ptr %5) #9
  call void @llvm.lifetime.start.p0(i64 4, ptr %6) #9
  %9 = load ptr, ptr %3, align 8, !tbaa !37
  %10 = getelementptr inbounds nuw %struct.GetBitContext, ptr %9, i32 0, i32 2
  %11 = load i32, ptr %10, align 8, !tbaa !39
  store i32 %11, ptr %6, align 4, !tbaa !13
  call void @llvm.lifetime.start.p0(i64 4, ptr %7) #9
  call void @llvm.lifetime.start.p0(i64 4, ptr %8) #9
  %12 = load ptr, ptr %3, align 8, !tbaa !37
  %13 = getelementptr inbounds nuw %struct.GetBitContext, ptr %12, i32 0, i32 4
  %14 = load i32, ptr %13, align 8, !tbaa !40
  store i32 %14, ptr %8, align 4, !tbaa !13
  %15 = load ptr, ptr %3, align 8, !tbaa !37
  %16 = getelementptr inbounds nuw %struct.GetBitContext, ptr %15, i32 0, i32 0
  %17 = load ptr, ptr %16, align 8, !tbaa !41
  %18 = load i32, ptr %6, align 4, !tbaa !13
  %19 = lshr i32 %18, 3
  %20 = zext i32 %19 to i64
  %21 = getelementptr inbounds nuw i8, ptr %17, i64 %20
  %22 = load i32, ptr %21, align 1, !tbaa !28
  %23 = call i32 @av_bswap32(i32 noundef %22) #10
  %24 = load i32, ptr %6, align 4, !tbaa !13
  %25 = and i32 %24, 7
  %26 = shl i32 %23, %25
  %27 = lshr i32 %26, 0
  store i32 %27, ptr %7, align 4, !tbaa !13
  %28 = load i32, ptr %7, align 4, !tbaa !13
  %29 = load i32, ptr %4, align 4, !tbaa !13
  %30 = sub nsw i32 32, %29
  %31 = lshr i32 %28, %30
  store i32 %31, ptr %5, align 4, !tbaa !13
  %32 = load i32, ptr %8, align 4, !tbaa !13
  %33 = load i32, ptr %6, align 4, !tbaa !13
  %34 = load i32, ptr %4, align 4, !tbaa !13
  %35 = add i32 %33, %34
  %36 = icmp ugt i32 %32, %35
  br i1 %36, label %37, label %41

37:                                               ; preds = %2
  %38 = load i32, ptr %6, align 4, !tbaa !13
  %39 = load i32, ptr %4, align 4, !tbaa !13
  %40 = add i32 %38, %39
  br label %43

41:                                               ; preds = %2
  %42 = load i32, ptr %8, align 4, !tbaa !13
  br label %43

43:                                               ; preds = %41, %37
  %44 = phi i32 [ %40, %37 ], [ %42, %41 ]
  store i32 %44, ptr %6, align 4, !tbaa !13
  %45 = load i32, ptr %6, align 4, !tbaa !13
  %46 = load ptr, ptr %3, align 8, !tbaa !37
  %47 = getelementptr inbounds nuw %struct.GetBitContext, ptr %46, i32 0, i32 2
  store i32 %45, ptr %47, align 8, !tbaa !39
  %48 = load i32, ptr %5, align 4, !tbaa !13
  call void @llvm.lifetime.end.p0(i64 4, ptr %8) #9
  call void @llvm.lifetime.end.p0(i64 4, ptr %7) #9
  call void @llvm.lifetime.end.p0(i64 4, ptr %6) #9
  call void @llvm.lifetime.end.p0(i64 4, ptr %5) #9
  ret i32 %48
}

; Function Attrs: alwaysinline nounwind willreturn memory(none) uwtable
define internal i32 @av_zero_extend_c(i32 noundef %0, i32 noundef %1) #3 {
  %3 = alloca i32, align 4
  %4 = alloca i32, align 4
  store i32 %0, ptr %3, align 4, !tbaa !13
  store i32 %1, ptr %4, align 4, !tbaa !13
  %5 = load i32, ptr %3, align 4, !tbaa !13
  %6 = load i32, ptr %4, align 4, !tbaa !13
  %7 = shl i32 1, %6
  %8 = sub i32 %7, 1
  %9 = and i32 %5, %8
  ret i32 %9
}

; Function Attrs: alwaysinline nounwind uwtable
define internal void @opus_rc_dec_normalize(ptr noundef %0) #2 {
  %2 = alloca ptr, align 8
  store ptr %0, ptr %2, align 8, !tbaa !4
  br label %3

3:                                                ; preds = %8, %1
  %4 = load ptr, ptr %2, align 8, !tbaa !4
  %5 = getelementptr inbounds nuw %struct.OpusRangeCoder, ptr %4, i32 0, i32 2
  %6 = load i32, ptr %5, align 8, !tbaa !15
  %7 = icmp ule i32 %6, 8388608
  br i1 %7, label %8, label %29

8:                                                ; preds = %3
  %9 = load ptr, ptr %2, align 8, !tbaa !4
  %10 = getelementptr inbounds nuw %struct.OpusRangeCoder, ptr %9, i32 0, i32 3
  %11 = load i32, ptr %10, align 4, !tbaa !20
  %12 = shl i32 %11, 8
  %13 = load ptr, ptr %2, align 8, !tbaa !4
  %14 = getelementptr inbounds nuw %struct.OpusRangeCoder, ptr %13, i32 0, i32 0
  %15 = call i32 @get_bits(ptr noundef %14, i32 noundef 8)
  %16 = xor i32 %15, 255
  %17 = or i32 %12, %16
  %18 = and i32 %17, 2147483647
  %19 = load ptr, ptr %2, align 8, !tbaa !4
  %20 = getelementptr inbounds nuw %struct.OpusRangeCoder, ptr %19, i32 0, i32 3
  store i32 %18, ptr %20, align 4, !tbaa !20
  %21 = load ptr, ptr %2, align 8, !tbaa !4
  %22 = getelementptr inbounds nuw %struct.OpusRangeCoder, ptr %21, i32 0, i32 2
  %23 = load i32, ptr %22, align 8, !tbaa !15
  %24 = shl i32 %23, 8
  store i32 %24, ptr %22, align 8, !tbaa !15
  %25 = load ptr, ptr %2, align 8, !tbaa !4
  %26 = getelementptr inbounds nuw %struct.OpusRangeCoder, ptr %25, i32 0, i32 4
  %27 = load i32, ptr %26, align 8, !tbaa !23
  %28 = add i32 %27, 8
  store i32 %28, ptr %26, align 8, !tbaa !23
  br label %3, !llvm.loop !24

29:                                               ; preds = %3
  ret void
}

; Function Attrs: nounwind uwtable
define i32 @ff_opus_rc_get_raw(ptr noundef %0, i32 noundef %1) #0 {
  %3 = alloca ptr, align 8
  %4 = alloca i32, align 4
  %5 = alloca i32, align 4
  store ptr %0, ptr %3, align 8, !tbaa !4
  store i32 %1, ptr %4, align 4, !tbaa !13
  call void @llvm.lifetime.start.p0(i64 4, ptr %5) #9
  store i32 0, ptr %5, align 4, !tbaa !13
  br label %6

6:                                                ; preds = %21, %2
  %7 = load ptr, ptr %3, align 8, !tbaa !4
  %8 = getelementptr inbounds nuw %struct.OpusRangeCoder, ptr %7, i32 0, i32 1
  %9 = getelementptr inbounds nuw %struct.RawBitsContext, ptr %8, i32 0, i32 1
  %10 = load i32, ptr %9, align 8, !tbaa !25
  %11 = icmp ne i32 %10, 0
  br i1 %11, label %12, label %19

12:                                               ; preds = %6
  %13 = load ptr, ptr %3, align 8, !tbaa !4
  %14 = getelementptr inbounds nuw %struct.OpusRangeCoder, ptr %13, i32 0, i32 1
  %15 = getelementptr inbounds nuw %struct.RawBitsContext, ptr %14, i32 0, i32 2
  %16 = load i32, ptr %15, align 4, !tbaa !26
  %17 = load i32, ptr %4, align 4, !tbaa !13
  %18 = icmp ult i32 %16, %17
  br label %19

19:                                               ; preds = %12, %6
  %20 = phi i1 [ false, %6 ], [ %18, %12 ]
  br i1 %20, label %21, label %49

21:                                               ; preds = %19
  %22 = load ptr, ptr %3, align 8, !tbaa !4
  %23 = getelementptr inbounds nuw %struct.OpusRangeCoder, ptr %22, i32 0, i32 1
  %24 = getelementptr inbounds nuw %struct.RawBitsContext, ptr %23, i32 0, i32 0
  %25 = load ptr, ptr %24, align 8, !tbaa !27
  %26 = getelementptr inbounds i8, ptr %25, i32 -1
  store ptr %26, ptr %24, align 8, !tbaa !27
  %27 = load i8, ptr %26, align 1, !tbaa !28
  %28 = zext i8 %27 to i32
  %29 = load ptr, ptr %3, align 8, !tbaa !4
  %30 = getelementptr inbounds nuw %struct.OpusRangeCoder, ptr %29, i32 0, i32 1
  %31 = getelementptr inbounds nuw %struct.RawBitsContext, ptr %30, i32 0, i32 2
  %32 = load i32, ptr %31, align 4, !tbaa !26
  %33 = shl i32 %28, %32
  %34 = load ptr, ptr %3, align 8, !tbaa !4
  %35 = getelementptr inbounds nuw %struct.OpusRangeCoder, ptr %34, i32 0, i32 1
  %36 = getelementptr inbounds nuw %struct.RawBitsContext, ptr %35, i32 0, i32 3
  %37 = load i32, ptr %36, align 8, !tbaa !29
  %38 = or i32 %37, %33
  store i32 %38, ptr %36, align 8, !tbaa !29
  %39 = load ptr, ptr %3, align 8, !tbaa !4
  %40 = getelementptr inbounds nuw %struct.OpusRangeCoder, ptr %39, i32 0, i32 1
  %41 = getelementptr inbounds nuw %struct.RawBitsContext, ptr %40, i32 0, i32 2
  %42 = load i32, ptr %41, align 4, !tbaa !26
  %43 = add i32 %42, 8
  store i32 %43, ptr %41, align 4, !tbaa !26
  %44 = load ptr, ptr %3, align 8, !tbaa !4
  %45 = getelementptr inbounds nuw %struct.OpusRangeCoder, ptr %44, i32 0, i32 1
  %46 = getelementptr inbounds nuw %struct.RawBitsContext, ptr %45, i32 0, i32 1
  %47 = load i32, ptr %46, align 8, !tbaa !25
  %48 = add i32 %47, -1
  store i32 %48, ptr %46, align 8, !tbaa !25
  br label %6, !llvm.loop !30

49:                                               ; preds = %19
  %50 = load ptr, ptr %3, align 8, !tbaa !4
  %51 = getelementptr inbounds nuw %struct.OpusRangeCoder, ptr %50, i32 0, i32 1
  %52 = getelementptr inbounds nuw %struct.RawBitsContext, ptr %51, i32 0, i32 3
  %53 = load i32, ptr %52, align 8, !tbaa !29
  %54 = load i32, ptr %4, align 4, !tbaa !13
  %55 = call i32 @av_zero_extend_c(i32 noundef %53, i32 noundef %54) #10
  store i32 %55, ptr %5, align 4, !tbaa !13
  %56 = load i32, ptr %4, align 4, !tbaa !13
  %57 = load ptr, ptr %3, align 8, !tbaa !4
  %58 = getelementptr inbounds nuw %struct.OpusRangeCoder, ptr %57, i32 0, i32 1
  %59 = getelementptr inbounds nuw %struct.RawBitsContext, ptr %58, i32 0, i32 3
  %60 = load i32, ptr %59, align 8, !tbaa !29
  %61 = lshr i32 %60, %56
  store i32 %61, ptr %59, align 8, !tbaa !29
  %62 = load i32, ptr %4, align 4, !tbaa !13
  %63 = load ptr, ptr %3, align 8, !tbaa !4
  %64 = getelementptr inbounds nuw %struct.OpusRangeCoder, ptr %63, i32 0, i32 1
  %65 = getelementptr inbounds nuw %struct.RawBitsContext, ptr %64, i32 0, i32 2
  %66 = load i32, ptr %65, align 4, !tbaa !26
  %67 = sub i32 %66, %62
  store i32 %67, ptr %65, align 4, !tbaa !26
  %68 = load i32, ptr %4, align 4, !tbaa !13
  %69 = load ptr, ptr %3, align 8, !tbaa !4
  %70 = getelementptr inbounds nuw %struct.OpusRangeCoder, ptr %69, i32 0, i32 4
  %71 = load i32, ptr %70, align 8, !tbaa !23
  %72 = add i32 %71, %68
  store i32 %72, ptr %70, align 8, !tbaa !23
  %73 = load i32, ptr %5, align 4, !tbaa !13
  call void @llvm.lifetime.end.p0(i64 4, ptr %5) #9
  ret i32 %73
}

; Function Attrs: alwaysinline nounwind uwtable
define internal void @opus_rc_dec_update(ptr noundef %0, i32 noundef %1, i32 noundef %2, i32 noundef %3, i32 noundef %4) #2 {
  %6 = alloca ptr, align 8
  %7 = alloca i32, align 4
  %8 = alloca i32, align 4
  %9 = alloca i32, align 4
  %10 = alloca i32, align 4
  store ptr %0, ptr %6, align 8, !tbaa !4
  store i32 %1, ptr %7, align 4, !tbaa !13
  store i32 %2, ptr %8, align 4, !tbaa !13
  store i32 %3, ptr %9, align 4, !tbaa !13
  store i32 %4, ptr %10, align 4, !tbaa !13
  %11 = load i32, ptr %7, align 4, !tbaa !13
  %12 = load i32, ptr %10, align 4, !tbaa !13
  %13 = load i32, ptr %9, align 4, !tbaa !13
  %14 = sub i32 %12, %13
  %15 = mul i32 %11, %14
  %16 = load ptr, ptr %6, align 8, !tbaa !4
  %17 = getelementptr inbounds nuw %struct.OpusRangeCoder, ptr %16, i32 0, i32 3
  %18 = load i32, ptr %17, align 4, !tbaa !20
  %19 = sub i32 %18, %15
  store i32 %19, ptr %17, align 4, !tbaa !20
  %20 = load i32, ptr %8, align 4, !tbaa !13
  %21 = icmp ne i32 %20, 0
  br i1 %21, label %22, label %28

22:                                               ; preds = %5
  %23 = load i32, ptr %7, align 4, !tbaa !13
  %24 = load i32, ptr %9, align 4, !tbaa !13
  %25 = load i32, ptr %8, align 4, !tbaa !13
  %26 = sub i32 %24, %25
  %27 = mul i32 %23, %26
  br label %38

28:                                               ; preds = %5
  %29 = load ptr, ptr %6, align 8, !tbaa !4
  %30 = getelementptr inbounds nuw %struct.OpusRangeCoder, ptr %29, i32 0, i32 2
  %31 = load i32, ptr %30, align 8, !tbaa !15
  %32 = load i32, ptr %7, align 4, !tbaa !13
  %33 = load i32, ptr %10, align 4, !tbaa !13
  %34 = load i32, ptr %9, align 4, !tbaa !13
  %35 = sub i32 %33, %34
  %36 = mul i32 %32, %35
  %37 = sub i32 %31, %36
  br label %38

38:                                               ; preds = %28, %22
  %39 = phi i32 [ %27, %22 ], [ %37, %28 ]
  %40 = load ptr, ptr %6, align 8, !tbaa !4
  %41 = getelementptr inbounds nuw %struct.OpusRangeCoder, ptr %40, i32 0, i32 2
  store i32 %39, ptr %41, align 8, !tbaa !15
  %42 = load ptr, ptr %6, align 8, !tbaa !4
  call void @opus_rc_dec_normalize(ptr noundef %42)
  ret void
}

; Function Attrs: alwaysinline nounwind willreturn memory(none) uwtable
define internal i32 @ff_log2_c(i32 noundef %0) #3 {
  %2 = alloca i32, align 4
  %3 = alloca i32, align 4
  store i32 %0, ptr %2, align 4, !tbaa !13
  call void @llvm.lifetime.start.p0(i64 4, ptr %3) #9
  store i32 0, ptr %3, align 4, !tbaa !13
  %4 = load i32, ptr %2, align 4, !tbaa !13
  %5 = and i32 %4, -65536
  %6 = icmp ne i32 %5, 0
  br i1 %6, label %7, label %12

7:                                                ; preds = %1
  %8 = load i32, ptr %2, align 4, !tbaa !13
  %9 = lshr i32 %8, 16
  store i32 %9, ptr %2, align 4, !tbaa !13
  %10 = load i32, ptr %3, align 4, !tbaa !13
  %11 = add nsw i32 %10, 16
  store i32 %11, ptr %3, align 4, !tbaa !13
  br label %12

12:                                               ; preds = %7, %1
  %13 = load i32, ptr %2, align 4, !tbaa !13
  %14 = and i32 %13, 65280
  %15 = icmp ne i32 %14, 0
  br i1 %15, label %16, label %21

16:                                               ; preds = %12
  %17 = load i32, ptr %2, align 4, !tbaa !13
  %18 = lshr i32 %17, 8
  store i32 %18, ptr %2, align 4, !tbaa !13
  %19 = load i32, ptr %3, align 4, !tbaa !13
  %20 = add nsw i32 %19, 8
  store i32 %20, ptr %3, align 4, !tbaa !13
  br label %21

21:                                               ; preds = %16, %12
  %22 = load i32, ptr %2, align 4, !tbaa !13
  %23 = zext i32 %22 to i64
  %24 = getelementptr inbounds nuw [256 x i8], ptr @ff_log2_tab, i64 0, i64 %23
  %25 = load i8, ptr %24, align 1, !tbaa !28
  %26 = zext i8 %25 to i32
  %27 = load i32, ptr %3, align 4, !tbaa !13
  %28 = add nsw i32 %27, %26
  store i32 %28, ptr %3, align 4, !tbaa !13
  %29 = load i32, ptr %3, align 4, !tbaa !13
  call void @llvm.lifetime.end.p0(i64 4, ptr %3) #9
  ret i32 %29
}

; Function Attrs: nounwind uwtable
define i32 @ff_opus_rc_dec_uint(ptr noundef %0, i32 noundef %1) #0 {
  %3 = alloca i32, align 4
  %4 = alloca ptr, align 8
  %5 = alloca i32, align 4
  %6 = alloca i32, align 4
  %7 = alloca i32, align 4
  %8 = alloca i32, align 4
  %9 = alloca i32, align 4
  %10 = alloca i32, align 4
  store ptr %0, ptr %4, align 8, !tbaa !4
  store i32 %1, ptr %5, align 4, !tbaa !13
  call void @llvm.lifetime.start.p0(i64 4, ptr %6) #9
  call void @llvm.lifetime.start.p0(i64 4, ptr %7) #9
  call void @llvm.lifetime.start.p0(i64 4, ptr %8) #9
  call void @llvm.lifetime.start.p0(i64 4, ptr %9) #9
  %11 = load i32, ptr %5, align 4, !tbaa !13
  %12 = sub i32 %11, 1
  %13 = call i32 @ff_log2_c(i32 noundef %12) #10
  %14 = load i32, ptr %5, align 4, !tbaa !13
  %15 = sub i32 %14, 1
  %16 = icmp ne i32 %15, 0
  %17 = xor i1 %16, true
  %18 = xor i1 %17, true
  %19 = zext i1 %18 to i32
  %20 = add nsw i32 %13, %19
  store i32 %20, ptr %6, align 4, !tbaa !13
  %21 = load i32, ptr %6, align 4, !tbaa !13
  %22 = icmp ugt i32 %21, 8
  br i1 %22, label %23, label %30

23:                                               ; preds = %2
  %24 = load i32, ptr %5, align 4, !tbaa !13
  %25 = sub i32 %24, 1
  %26 = load i32, ptr %6, align 4, !tbaa !13
  %27 = sub i32 %26, 8
  %28 = lshr i32 %25, %27
  %29 = add i32 %28, 1
  br label %32

30:                                               ; preds = %2
  %31 = load i32, ptr %5, align 4, !tbaa !13
  br label %32

32:                                               ; preds = %30, %23
  %33 = phi i32 [ %29, %23 ], [ %31, %30 ]
  store i32 %33, ptr %9, align 4, !tbaa !13
  %34 = load ptr, ptr %4, align 8, !tbaa !4
  %35 = getelementptr inbounds nuw %struct.OpusRangeCoder, ptr %34, i32 0, i32 2
  %36 = load i32, ptr %35, align 8, !tbaa !15
  %37 = load i32, ptr %9, align 4, !tbaa !13
  %38 = udiv i32 %36, %37
  store i32 %38, ptr %8, align 4, !tbaa !13
  %39 = load ptr, ptr %4, align 8, !tbaa !4
  %40 = getelementptr inbounds nuw %struct.OpusRangeCoder, ptr %39, i32 0, i32 3
  %41 = load i32, ptr %40, align 4, !tbaa !20
  %42 = load i32, ptr %8, align 4, !tbaa !13
  %43 = udiv i32 %41, %42
  %44 = add i32 %43, 1
  store i32 %44, ptr %7, align 4, !tbaa !13
  %45 = load i32, ptr %9, align 4, !tbaa !13
  %46 = load i32, ptr %7, align 4, !tbaa !13
  %47 = load i32, ptr %9, align 4, !tbaa !13
  %48 = icmp ugt i32 %46, %47
  br i1 %48, label %49, label %51

49:                                               ; preds = %32
  %50 = load i32, ptr %9, align 4, !tbaa !13
  br label %53

51:                                               ; preds = %32
  %52 = load i32, ptr %7, align 4, !tbaa !13
  br label %53

53:                                               ; preds = %51, %49
  %54 = phi i32 [ %50, %49 ], [ %52, %51 ]
  %55 = sub i32 %45, %54
  store i32 %55, ptr %7, align 4, !tbaa !13
  %56 = load ptr, ptr %4, align 8, !tbaa !4
  %57 = load i32, ptr %8, align 4, !tbaa !13
  %58 = load i32, ptr %7, align 4, !tbaa !13
  %59 = load i32, ptr %7, align 4, !tbaa !13
  %60 = add i32 %59, 1
  %61 = load i32, ptr %9, align 4, !tbaa !13
  call void @opus_rc_dec_update(ptr noundef %56, i32 noundef %57, i32 noundef %58, i32 noundef %60, i32 noundef %61)
  %62 = load i32, ptr %6, align 4, !tbaa !13
  %63 = icmp ugt i32 %62, 8
  br i1 %63, label %64, label %85

64:                                               ; preds = %53
  %65 = load i32, ptr %7, align 4, !tbaa !13
  %66 = load i32, ptr %6, align 4, !tbaa !13
  %67 = sub i32 %66, 8
  %68 = shl i32 %65, %67
  %69 = load ptr, ptr %4, align 8, !tbaa !4
  %70 = load i32, ptr %6, align 4, !tbaa !13
  %71 = sub i32 %70, 8
  %72 = call i32 @ff_opus_rc_get_raw(ptr noundef %69, i32 noundef %71)
  %73 = or i32 %68, %72
  store i32 %73, ptr %7, align 4, !tbaa !13
  %74 = load i32, ptr %7, align 4, !tbaa !13
  %75 = load i32, ptr %5, align 4, !tbaa !13
  %76 = sub i32 %75, 1
  %77 = icmp ugt i32 %74, %76
  br i1 %77, label %78, label %81

78:                                               ; preds = %64
  %79 = load i32, ptr %5, align 4, !tbaa !13
  %80 = sub i32 %79, 1
  br label %83

81:                                               ; preds = %64
  %82 = load i32, ptr %7, align 4, !tbaa !13
  br label %83

83:                                               ; preds = %81, %78
  %84 = phi i32 [ %80, %78 ], [ %82, %81 ]
  store i32 %84, ptr %3, align 4
  store i32 1, ptr %10, align 4
  br label %87

85:                                               ; preds = %53
  %86 = load i32, ptr %7, align 4, !tbaa !13
  store i32 %86, ptr %3, align 4
  store i32 1, ptr %10, align 4
  br label %87

87:                                               ; preds = %85, %83
  call void @llvm.lifetime.end.p0(i64 4, ptr %9) #9
  call void @llvm.lifetime.end.p0(i64 4, ptr %8) #9
  call void @llvm.lifetime.end.p0(i64 4, ptr %7) #9
  call void @llvm.lifetime.end.p0(i64 4, ptr %6) #9
  %88 = load i32, ptr %3, align 4
  ret i32 %88
}