; Function Attrs: nofree norecurse nosync nounwind memory(read, argmem: readwrite, inaccessiblemem: none) uwtable
define i32 @ff_opus_rc_dec_uint(ptr noundef captures(none) %0, i32 noundef %1) local_unnamed_addr #0 {
opus_rc_dec_update.exit:
  %2 = add i32 %1, -1
  %.not.i31 = icmp ult i32 %2, 65536
  %3 = lshr i32 %2, 16
  %spec.select.i = select i1 %.not.i31, i32 %2, i32 %3
  %spec.select12.i = select i1 %.not.i31, i32 0, i32 16
  %.not11.i = icmp samesign ult i32 %spec.select.i, 256
  %4 = lshr i32 %spec.select.i, 8
  %5 = or disjoint i32 %spec.select12.i, 8
  %.110.i = select i1 %.not11.i, i32 %spec.select.i, i32 %4
  %.1.i = select i1 %.not11.i, i32 %spec.select12.i, i32 %5
  %6 = zext nneg i32 %.110.i to i64
  %7 = getelementptr inbounds nuw [256 x i8], ptr @ff_log2_tab, i64 0, i64 %6
  %8 = load i8, ptr %7, align 1, !tbaa !22
  %9 = zext i8 %8 to i32
  %10 = icmp ne i32 %2, 0
  %11 = zext i1 %10 to i32
  %12 = or disjoint i32 %.1.i, %11
  %13 = add nuw nsw i32 %12, %9
  %14 = icmp samesign ugt i32 %13, 8
  %15 = add nsw i32 %13, -8
  %16 = lshr i32 %2, %15
  %17 = add nuw i32 %16, 1
  %18 = select i1 %14, i32 %17, i32 %1
  %19 = getelementptr inbounds nuw i8, ptr %0, i64 56
  %20 = load i32, ptr %19, align 8, !tbaa !8
  %21 = udiv i32 %20, %18
  %22 = getelementptr inbounds nuw i8, ptr %0, i64 60
  %23 = load i32, ptr %22, align 4, !tbaa !15
  %24 = udiv i32 %23, %21
  %25 = add i32 %24, 1
  %26 = tail call i32 @llvm.usub.sat.i32(i32 %18, i32 %25)
  %.neg = xor i32 %26, -1
  %27 = add i32 %18, %.neg
  %28 = mul i32 %27, %21
  %29 = sub i32 %23, %28
  store i32 %29, ptr %22, align 4, !tbaa !15
  %.not.i.not = icmp ugt i32 %18, %25
  %30 = sub i32 %20, %28
  %spec.select = select i1 %.not.i.not, i32 %21, i32 %30
  store i32 %spec.select, ptr %19, align 8, !tbaa !8
  %31 = icmp ult i32 %spec.select, 8388609
  br i1 %31, label %.lr.ph, label %opus_rc_dec_normalize.exit

.lr.ph:                                           ; preds = %opus_rc_dec_update.exit
  %32 = getelementptr inbounds nuw i8, ptr %0, i64 16
  %33 = getelementptr inbounds nuw i8, ptr %0, i64 24
  %34 = load i32, ptr %33, align 8, !tbaa !18
  %35 = load ptr, ptr %0, align 8, !tbaa !19
  %36 = getelementptr inbounds nuw i8, ptr %0, i64 64
  %.promoted33 = load i32, ptr %32, align 8, !tbaa !20
  %.promoted34 = load i32, ptr %36, align 8, !tbaa !21
  br label %37

37:                                               ; preds = %.lr.ph, %37
  %38 = phi i32 [ %.promoted34, %.lr.ph ], [ %56, %37 ]
  %39 = phi i32 [ %.promoted33, %.lr.ph ], [ %52, %37 ]
  %40 = phi i32 [ %29, %.lr.ph ], [ %54, %37 ]
  %41 = phi i32 [ %spec.select, %.lr.ph ], [ %55, %37 ]
  %42 = shl i32 %40, 8
  %43 = lshr i32 %39, 3
  %44 = zext nneg i32 %43 to i64
  %45 = getelementptr inbounds nuw i8, ptr %35, i64 %44
  %46 = load i32, ptr %45, align 1, !tbaa !22
  %47 = tail call i32 @llvm.bswap.i32(i32 %46)
  %48 = and i32 %39, 7
  %49 = shl i32 %47, %48
  %50 = lshr i32 %49, 24
  %51 = add i32 %39, 8
  %52 = tail call i32 @llvm.umin.i32(i32 %34, i32 %51)
  store i32 %52, ptr %32, align 8, !tbaa !20
  %.masked.i = and i32 %42, 2147483392
  %53 = or disjoint i32 %50, %.masked.i
  %54 = xor i32 %53, 255
  store i32 %54, ptr %22, align 4, !tbaa !15
  %55 = shl nuw i32 %41, 8
  store i32 %55, ptr %19, align 8, !tbaa !8
  %56 = add i32 %38, 8
  store i32 %56, ptr %36, align 8, !tbaa !21
  %57 = icmp ult i32 %41, 32769
  br i1 %57, label %37, label %opus_rc_dec_normalize.exit, !llvm.loop !23

opus_rc_dec_normalize.exit:                       ; preds = %37, %opus_rc_dec_update.exit
  br i1 %14, label %58, label %90

58:                                               ; preds = %opus_rc_dec_normalize.exit
  %59 = shl i32 %26, %15
  %60 = getelementptr inbounds nuw i8, ptr %0, i64 44
  %61 = getelementptr inbounds nuw i8, ptr %0, i64 32
  %62 = getelementptr inbounds nuw i8, ptr %0, i64 40
  %.promoted.i = load i32, ptr %62, align 8, !tbaa !30
  %.not16.i = icmp eq i32 %.promoted.i, 0
  %.pre.i = load i32, ptr %60, align 4, !tbaa !31
  br i1 %.not16.i, label %ff_opus_rc_get_raw.exit, label %.lr.ph.i

.lr.ph.i:                                         ; preds = %58
  %63 = getelementptr inbounds nuw i8, ptr %0, i64 48
  br label %64

64:                                               ; preds = %68, %.lr.ph.i
  %65 = phi i32 [ %.pre.i, %.lr.ph.i ], [ %76, %68 ]
  %66 = phi i32 [ %.promoted.i, %.lr.ph.i ], [ %77, %68 ]
  %67 = icmp ult i32 %65, %15
  br i1 %67, label %68, label %ff_opus_rc_get_raw.exit

68:                                               ; preds = %64
  %69 = load ptr, ptr %61, align 8, !tbaa !28
  %70 = getelementptr inbounds i8, ptr %69, i64 -1
  store ptr %70, ptr %61, align 8, !tbaa !28
  %71 = load i8, ptr %70, align 1, !tbaa !22
  %72 = zext i8 %71 to i32
  %73 = shl i32 %72, %65
  %74 = load i32, ptr %63, align 8, !tbaa !32
  %75 = or i32 %73, %74
  store i32 %75, ptr %63, align 8, !tbaa !32
  %76 = add i32 %65, 8
  store i32 %76, ptr %60, align 4, !tbaa !31
  %77 = add i32 %66, -1
  store i32 %77, ptr %62, align 8, !tbaa !30
  %.not.i32 = icmp eq i32 %77, 0
  br i1 %.not.i32, label %ff_opus_rc_get_raw.exit, label %64, !llvm.loop !33

ff_opus_rc_get_raw.exit:                          ; preds = %64, %68, %58
  %78 = phi i32 [ %.pre.i, %58 ], [ %76, %68 ], [ %65, %64 ]
  %79 = getelementptr inbounds nuw i8, ptr %0, i64 48
  %80 = load i32, ptr %79, align 8, !tbaa !32
  %notmask.i.i = shl nsw i32 -1, %15
  %81 = xor i32 %notmask.i.i, -1
  %82 = and i32 %80, %81
  %83 = lshr i32 %80, %15
  store i32 %83, ptr %79, align 8, !tbaa !32
  %84 = sub i32 %78, %15
  store i32 %84, ptr %60, align 4, !tbaa !31
  %85 = getelementptr inbounds nuw i8, ptr %0, i64 64
  %86 = load i32, ptr %85, align 8, !tbaa !21
  %87 = add i32 %86, %15
  store i32 %87, ptr %85, align 8, !tbaa !21
  %88 = or i32 %82, %59
  %89 = tail call i32 @llvm.umin.i32(i32 %88, i32 %2)
  br label %90

90:                                               ; preds = %opus_rc_dec_normalize.exit, %ff_opus_rc_get_raw.exit
  %.0 = phi i32 [ %89, %ff_opus_rc_get_raw.exit ], [ %26, %opus_rc_dec_normalize.exit ]
  ret i32 %.0
}